
IntRegReg/code.elf:     ファイル形式 elf32-littleriscv


セクション .text の逆アセンブル:

00008000 <_start>:
    8000:	0080006f          	j	8008 <_init_reg>

00008004 <_end>:
    8004:	0000006f          	j	8004 <_end>

00008008 <_init_reg>:
    8008:	00000093          	li	ra,0
    800c:	00000113          	li	sp,0
    8010:	00000193          	li	gp,0
    8014:	00000213          	li	tp,0
    8018:	00000293          	li	t0,0
    801c:	00000313          	li	t1,0
    8020:	00000393          	li	t2,0
    8024:	00000413          	li	s0,0
    8028:	00000493          	li	s1,0
    802c:	00000513          	li	a0,0
    8030:	00000593          	li	a1,0
    8034:	00000613          	li	a2,0
    8038:	00000693          	li	a3,0
    803c:	00000713          	li	a4,0
    8040:	00000793          	li	a5,0
    8044:	00000813          	li	a6,0
    8048:	00000893          	li	a7,0
    804c:	00000913          	li	s2,0
    8050:	00000993          	li	s3,0
    8054:	00000a13          	li	s4,0
    8058:	00000a93          	li	s5,0
    805c:	00000b13          	li	s6,0
    8060:	00000b93          	li	s7,0
    8064:	00000c13          	li	s8,0
    8068:	00000c93          	li	s9,0
    806c:	00000d13          	li	s10,0
    8070:	00000d93          	li	s11,0
    8074:	00000e13          	li	t3,0
    8078:	00000e93          	li	t4,0
    807c:	00000f13          	li	t5,0
    8080:	00000f93          	li	t6,0
    8084:	00020137          	lui	sp,0x20

00008088 <_call_main>:
    8088:	008000ef          	jal	8090 <main>
    808c:	f79ff06f          	j	8004 <_end>

00008090 <main>:
    8090:	fff00513          	li	a0,-1
    8094:	00100593          	li	a1,1
    8098:	00c0006f          	j	80a4 <main2>

0000809c <end>:
    809c:	00100893          	li	a7,1

000080a0 <end2>:
    80a0:	0000006f          	j	80a0 <end2>

000080a4 <main2>:
    80a4:	00b50633          	add	a2,a0,a1
    80a8:	00c888b3          	add	a7,a7,a2
    80ac:	40b60633          	sub	a2,a2,a1
    80b0:	00c888b3          	add	a7,a7,a2
    80b4:	40c58633          	sub	a2,a1,a2
    80b8:	00c888b3          	add	a7,a7,a2
    80bc:	00c5a6b3          	slt	a3,a1,a2
    80c0:	00d888b3          	add	a7,a7,a3
    80c4:	011626b3          	slt	a3,a2,a7
    80c8:	00d888b3          	add	a7,a7,a3
    80cc:	00b526b3          	slt	a3,a0,a1
    80d0:	00d888b3          	add	a7,a7,a3
    80d4:	00c5b6b3          	sltu	a3,a1,a2
    80d8:	00d888b3          	add	a7,a7,a3
    80dc:	00b5b6b3          	sltu	a3,a1,a1
    80e0:	00d888b3          	add	a7,a7,a3
    80e4:	00b536b3          	sltu	a3,a0,a1
    80e8:	00d888b3          	add	a7,a7,a3
    80ec:	00b57733          	and	a4,a0,a1
    80f0:	00e888b3          	add	a7,a7,a4
    80f4:	00c8e733          	or	a4,a7,a2
    80f8:	00e888b3          	add	a7,a7,a4
    80fc:	00c8c733          	xor	a4,a7,a2
    8100:	00e888b3          	add	a7,a7,a4
    8104:	00c597b3          	sll	a5,a1,a2
    8108:	00f888b3          	add	a7,a7,a5
    810c:	00b657b3          	srl	a5,a2,a1
    8110:	00f888b3          	add	a7,a7,a5
    8114:	00b557b3          	srl	a5,a0,a1
    8118:	00f888b3          	add	a7,a7,a5
    811c:	40b5d7b3          	sra	a5,a1,a1
    8120:	00f888b3          	add	a7,a7,a5
    8124:	40b557b3          	sra	a5,a0,a1
    8128:	00f888b3          	add	a7,a7,a5
    812c:	00000013          	nop

00008130 <main3>:
    8130:	0000006f          	j	8130 <main3>

セクション .riscv.attributes の逆アセンブル:

00000000 <.riscv.attributes>:
   0:	1941                	.insn	2, 0x1941
   2:	0000                	.insn	2, 0x
   4:	7200                	.insn	2, 0x7200
   6:	7369                	.insn	2, 0x7369
   8:	01007663          	bgeu	zero,a6,14 <_start-0x7fec>
   c:	0000000f          	fence	unknown,unknown
  10:	7205                	.insn	2, 0x7205
  12:	3376                	.insn	2, 0x3376
  14:	6932                	.insn	2, 0x6932
  16:	7032                	.insn	2, 0x7032
  18:	0031                	.insn	2, 0x0031

セクション .debug_line の逆アセンブル:

00000000 <.debug_line>:
   0:	0118                	.insn	2, 0x0118
   2:	0000                	.insn	2, 0x
   4:	0005                	.insn	2, 0x0005
   6:	0004                	.insn	2, 0x0004
   8:	002e                	.insn	2, 0x002e
   a:	0000                	.insn	2, 0x
   c:	0101                	.insn	2, 0x0101
   e:	fb01                	.insn	2, 0xfb01
  10:	0d0e                	.insn	2, 0x0d0e
  12:	0100                	.insn	2, 0x0100
  14:	0101                	.insn	2, 0x0101
  16:	0001                	.insn	2, 0x0001
  18:	0000                	.insn	2, 0x
  1a:	0001                	.insn	2, 0x0001
  1c:	0100                	.insn	2, 0x0100
  1e:	0101                	.insn	2, 0x0101
  20:	021f 0000 0000      	.insn	6, 0x021f
  26:	00000023          	sb	zero,0(zero) # 0 <_start-0x8000>
  2a:	0102                	.insn	2, 0x0102
  2c:	021f 020f 0046      	.insn	6, 0x0046020f021f
  32:	0000                	.insn	2, 0x
  34:	4601                	.insn	2, 0x4601
  36:	0000                	.insn	2, 0x
  38:	0100                	.insn	2, 0x0100
  3a:	0500                	.insn	2, 0x0500
  3c:	0002                	.insn	2, 0x0002
  3e:	0080                	.insn	2, 0x0080
  40:	0300                	.insn	2, 0x0300
  42:	0109                	.insn	2, 0x0109
  44:	04090203          	lb	tp,64(s2)
  48:	0100                	.insn	2, 0x0100
  4a:	04090203          	lb	tp,64(s2)
  4e:	0100                	.insn	2, 0x0100
  50:	04090103          	lb	sp,64(s2)
  54:	0100                	.insn	2, 0x0100
  56:	04090103          	lb	sp,64(s2)
  5a:	0100                	.insn	2, 0x0100
  5c:	04090103          	lb	sp,64(s2)
  60:	0100                	.insn	2, 0x0100
  62:	04090103          	lb	sp,64(s2)
  66:	0100                	.insn	2, 0x0100
  68:	04090103          	lb	sp,64(s2)
  6c:	0100                	.insn	2, 0x0100
  6e:	04090103          	lb	sp,64(s2)
  72:	0100                	.insn	2, 0x0100
  74:	04090103          	lb	sp,64(s2)
  78:	0100                	.insn	2, 0x0100
  7a:	04090103          	lb	sp,64(s2)
  7e:	0100                	.insn	2, 0x0100
  80:	04090103          	lb	sp,64(s2)
  84:	0100                	.insn	2, 0x0100
  86:	04090103          	lb	sp,64(s2)
  8a:	0100                	.insn	2, 0x0100
  8c:	04090103          	lb	sp,64(s2)
  90:	0100                	.insn	2, 0x0100
  92:	04090103          	lb	sp,64(s2)
  96:	0100                	.insn	2, 0x0100
  98:	04090103          	lb	sp,64(s2)
  9c:	0100                	.insn	2, 0x0100
  9e:	04090103          	lb	sp,64(s2)
  a2:	0100                	.insn	2, 0x0100
  a4:	04090103          	lb	sp,64(s2)
  a8:	0100                	.insn	2, 0x0100
  aa:	04090103          	lb	sp,64(s2)
  ae:	0100                	.insn	2, 0x0100
  b0:	04090103          	lb	sp,64(s2)
  b4:	0100                	.insn	2, 0x0100
  b6:	04090103          	lb	sp,64(s2)
  ba:	0100                	.insn	2, 0x0100
  bc:	04090103          	lb	sp,64(s2)
  c0:	0100                	.insn	2, 0x0100
  c2:	04090103          	lb	sp,64(s2)
  c6:	0100                	.insn	2, 0x0100
  c8:	04090103          	lb	sp,64(s2)
  cc:	0100                	.insn	2, 0x0100
  ce:	04090103          	lb	sp,64(s2)
  d2:	0100                	.insn	2, 0x0100
  d4:	04090103          	lb	sp,64(s2)
  d8:	0100                	.insn	2, 0x0100
  da:	04090103          	lb	sp,64(s2)
  de:	0100                	.insn	2, 0x0100
  e0:	04090103          	lb	sp,64(s2)
  e4:	0100                	.insn	2, 0x0100
  e6:	04090103          	lb	sp,64(s2)
  ea:	0100                	.insn	2, 0x0100
  ec:	04090103          	lb	sp,64(s2)
  f0:	0100                	.insn	2, 0x0100
  f2:	04090103          	lb	sp,64(s2)
  f6:	0100                	.insn	2, 0x0100
  f8:	04090103          	lb	sp,64(s2)
  fc:	0100                	.insn	2, 0x0100
  fe:	04090103          	lb	sp,64(s2)
 102:	0100                	.insn	2, 0x0100
 104:	04090103          	lb	sp,64(s2)
 108:	0100                	.insn	2, 0x0100
 10a:	04090203          	lb	tp,64(s2)
 10e:	0100                	.insn	2, 0x0100
 110:	04090103          	lb	sp,64(s2)
 114:	0100                	.insn	2, 0x0100
 116:	0409                	.insn	2, 0x0409
 118:	0000                	.insn	2, 0x
 11a:	0101                	.insn	2, 0x0101
 11c:	0134                	.insn	2, 0x0134
 11e:	0000                	.insn	2, 0x
 120:	0005                	.insn	2, 0x0005
 122:	0004                	.insn	2, 0x0004
 124:	002e                	.insn	2, 0x002e
 126:	0000                	.insn	2, 0x
 128:	0101                	.insn	2, 0x0101
 12a:	fb01                	.insn	2, 0xfb01
 12c:	0d0e                	.insn	2, 0x0d0e
 12e:	0100                	.insn	2, 0x0100
 130:	0101                	.insn	2, 0x0101
 132:	0001                	.insn	2, 0x0001
 134:	0000                	.insn	2, 0x
 136:	0001                	.insn	2, 0x0001
 138:	0100                	.insn	2, 0x0100
 13a:	0101                	.insn	2, 0x0101
 13c:	021f 0000 0000      	.insn	6, 0x021f
 142:	004c                	.insn	2, 0x004c
 144:	0000                	.insn	2, 0x
 146:	0102                	.insn	2, 0x0102
 148:	021f 020f 0056      	.insn	6, 0x0056020f021f
 14e:	0000                	.insn	2, 0x
 150:	5601                	.insn	2, 0x5601
 152:	0000                	.insn	2, 0x
 154:	0100                	.insn	2, 0x0100
 156:	0500                	.insn	2, 0x0500
 158:	9002                	.insn	2, 0x9002
 15a:	0080                	.insn	2, 0x0080
 15c:	1900                	.insn	2, 0x1900
 15e:	04090103          	lb	sp,64(s2)
 162:	0100                	.insn	2, 0x0100
 164:	04090103          	lb	sp,64(s2)
 168:	0100                	.insn	2, 0x0100
 16a:	04090203          	lb	tp,64(s2)
 16e:	0100                	.insn	2, 0x0100
 170:	04090203          	lb	tp,64(s2)
 174:	0100                	.insn	2, 0x0100
 176:	04090203          	lb	tp,64(s2)
 17a:	0100                	.insn	2, 0x0100
 17c:	04090103          	lb	sp,64(s2)
 180:	0100                	.insn	2, 0x0100
 182:	04090103          	lb	sp,64(s2)
 186:	0100                	.insn	2, 0x0100
 188:	04090103          	lb	sp,64(s2)
 18c:	0100                	.insn	2, 0x0100
 18e:	04090103          	lb	sp,64(s2)
 192:	0100                	.insn	2, 0x0100
 194:	04090103          	lb	sp,64(s2)
 198:	0100                	.insn	2, 0x0100
 19a:	04090103          	lb	sp,64(s2)
 19e:	0100                	.insn	2, 0x0100
 1a0:	04090103          	lb	sp,64(s2)
 1a4:	0100                	.insn	2, 0x0100
 1a6:	04090103          	lb	sp,64(s2)
 1aa:	0100                	.insn	2, 0x0100
 1ac:	04090103          	lb	sp,64(s2)
 1b0:	0100                	.insn	2, 0x0100
 1b2:	04090103          	lb	sp,64(s2)
 1b6:	0100                	.insn	2, 0x0100
 1b8:	04090103          	lb	sp,64(s2)
 1bc:	0100                	.insn	2, 0x0100
 1be:	04090103          	lb	sp,64(s2)
 1c2:	0100                	.insn	2, 0x0100
 1c4:	04090103          	lb	sp,64(s2)
 1c8:	0100                	.insn	2, 0x0100
 1ca:	04090103          	lb	sp,64(s2)
 1ce:	0100                	.insn	2, 0x0100
 1d0:	04090103          	lb	sp,64(s2)
 1d4:	0100                	.insn	2, 0x0100
 1d6:	04090103          	lb	sp,64(s2)
 1da:	0100                	.insn	2, 0x0100
 1dc:	04090103          	lb	sp,64(s2)
 1e0:	0100                	.insn	2, 0x0100
 1e2:	04090103          	lb	sp,64(s2)
 1e6:	0100                	.insn	2, 0x0100
 1e8:	04090103          	lb	sp,64(s2)
 1ec:	0100                	.insn	2, 0x0100
 1ee:	04090103          	lb	sp,64(s2)
 1f2:	0100                	.insn	2, 0x0100
 1f4:	04090103          	lb	sp,64(s2)
 1f8:	0100                	.insn	2, 0x0100
 1fa:	04090103          	lb	sp,64(s2)
 1fe:	0100                	.insn	2, 0x0100
 200:	04090103          	lb	sp,64(s2)
 204:	0100                	.insn	2, 0x0100
 206:	04090103          	lb	sp,64(s2)
 20a:	0100                	.insn	2, 0x0100
 20c:	04090103          	lb	sp,64(s2)
 210:	0100                	.insn	2, 0x0100
 212:	04090103          	lb	sp,64(s2)
 216:	0100                	.insn	2, 0x0100
 218:	04090103          	lb	sp,64(s2)
 21c:	0100                	.insn	2, 0x0100
 21e:	04090103          	lb	sp,64(s2)
 222:	0100                	.insn	2, 0x0100
 224:	04090103          	lb	sp,64(s2)
 228:	0100                	.insn	2, 0x0100
 22a:	04090103          	lb	sp,64(s2)
 22e:	0100                	.insn	2, 0x0100
 230:	04090103          	lb	sp,64(s2)
 234:	0100                	.insn	2, 0x0100
 236:	04090103          	lb	sp,64(s2)
 23a:	0100                	.insn	2, 0x0100
 23c:	04090103          	lb	sp,64(s2)
 240:	0100                	.insn	2, 0x0100
 242:	04090103          	lb	sp,64(s2)
 246:	0100                	.insn	2, 0x0100
 248:	04090203          	lb	tp,64(s2)
 24c:	0100                	.insn	2, 0x0100
 24e:	0409                	.insn	2, 0x0409
 250:	0000                	.insn	2, 0x
 252:	0101                	.insn	2, 0x0101

セクション .debug_line_str の逆アセンブル:

00000000 <.debug_line_str>:
   0:	6d6f682f          	.insn	4, 0x6d6f682f
   4:	2f65                	.insn	2, 0x2f65
   6:	6564                	.insn	2, 0x6564
   8:	6a6e                	.insn	2, 0x6a6e
   a:	33622f6f          	jal	t5,22340 <stack_top+0x2340>
   e:	7865                	.insn	2, 0x7865
  10:	2f70                	.insn	2, 0x2f70
  12:	6562                	.insn	2, 0x6562
  14:	636e                	.insn	2, 0x636e
  16:	6d68                	.insn	2, 0x6d68
  18:	7261                	.insn	2, 0x7261
  1a:	742f736b          	.insn	4, 0x742f736b
  1e:	7365                	.insn	2, 0x7365
  20:	7374                	.insn	2, 0x7374
  22:	2f00                	.insn	2, 0x2f00
  24:	6f68                	.insn	2, 0x6f68
  26:	656d                	.insn	2, 0x656d
  28:	6e65642f          	.insn	4, 0x6e65642f
  2c:	6f6a                	.insn	2, 0x6f6a
  2e:	6533622f          	.insn	4, 0x6533622f
  32:	7078                	.insn	2, 0x7078
  34:	6e65622f          	.insn	4, 0x6e65622f
  38:	616d6863          	bltu	s10,s6,648 <_start-0x79b8>
  3c:	6b72                	.insn	2, 0x6b72
  3e:	6f742f73          	.insn	4, 0x6f742f73
  42:	00736c6f          	jal	s8,36848 <stack_top+0x16848>
  46:	2e747263          	bgeu	s0,t2,32a <_start-0x7cd6>
  4a:	6e490073          	.insn	4, 0x6e490073
  4e:	5274                	.insn	2, 0x5274
  50:	6765                	.insn	2, 0x6765
  52:	6552                	.insn	2, 0x6552
  54:	6f630067          	jr	1782(t1)
  58:	6564                	.insn	2, 0x6564
  5a:	732e                	.insn	2, 0x732e
	...

セクション .debug_info の逆アセンブル:

00000000 <.debug_info>:
   0:	0021                	.insn	2, 0x0021
   2:	0000                	.insn	2, 0x
   4:	0005                	.insn	2, 0x0005
   6:	0401                	.insn	2, 0x0401
   8:	0000                	.insn	2, 0x
   a:	0000                	.insn	2, 0x
   c:	0001                	.insn	2, 0x0001
   e:	0000                	.insn	2, 0x
  10:	0000                	.insn	2, 0x
  12:	0080                	.insn	2, 0x0080
  14:	9400                	.insn	2, 0x9400
  16:	0001                	.insn	2, 0x0001
  18:	0000                	.insn	2, 0x
  1a:	2900                	.insn	2, 0x2900
  1c:	0000                	.insn	2, 0x
  1e:	4c00                	.insn	2, 0x4c00
  20:	0000                	.insn	2, 0x
  22:	0100                	.insn	2, 0x0100
  24:	2180                	.insn	2, 0x2180
  26:	0000                	.insn	2, 0x
  28:	0500                	.insn	2, 0x0500
  2a:	0100                	.insn	2, 0x0100
  2c:	1404                	.insn	2, 0x1404
  2e:	0000                	.insn	2, 0x
  30:	0100                	.insn	2, 0x0100
  32:	011c                	.insn	2, 0x011c
  34:	0000                	.insn	2, 0x
  36:	8090                	.insn	2, 0x8090
  38:	0000                	.insn	2, 0x
  3a:	01a4                	.insn	2, 0x01a4
  3c:	0058                	.insn	2, 0x0058
  3e:	0000                	.insn	2, 0x
  40:	0029                	.insn	2, 0x0029
  42:	0000                	.insn	2, 0x
  44:	004c                	.insn	2, 0x004c
  46:	0000                	.insn	2, 0x
  48:	8001                	.insn	2, 0x8001

セクション .debug_abbrev の逆アセンブル:

00000000 <.debug_abbrev>:
   0:	1101                	.insn	2, 0x1101
   2:	1000                	.insn	2, 0x1000
   4:	12011117          	auipc	sp,0x12011
   8:	1b0e030f          	.insn	4, 0x1b0e030f
   c:	250e                	.insn	2, 0x250e
   e:	130e                	.insn	2, 0x130e
  10:	0005                	.insn	2, 0x0005
  12:	0000                	.insn	2, 0x
  14:	1101                	.insn	2, 0x1101
  16:	1000                	.insn	2, 0x1000
  18:	12011117          	auipc	sp,0x12011
  1c:	1b0e030f          	.insn	4, 0x1b0e030f
  20:	250e                	.insn	2, 0x250e
  22:	130e                	.insn	2, 0x130e
  24:	0005                	.insn	2, 0x0005
	...

セクション .debug_aranges の逆アセンブル:

00000000 <.debug_aranges>:
   0:	001c                	.insn	2, 0x001c
   2:	0000                	.insn	2, 0x
   4:	0002                	.insn	2, 0x0002
   6:	0000                	.insn	2, 0x
   8:	0000                	.insn	2, 0x
   a:	0004                	.insn	2, 0x0004
   c:	0000                	.insn	2, 0x
   e:	0000                	.insn	2, 0x
  10:	8000                	.insn	2, 0x8000
  12:	0000                	.insn	2, 0x
  14:	0090                	.insn	2, 0x0090
	...
  1e:	0000                	.insn	2, 0x
  20:	001c                	.insn	2, 0x001c
  22:	0000                	.insn	2, 0x
  24:	0002                	.insn	2, 0x0002
  26:	0025                	.insn	2, 0x0025
  28:	0000                	.insn	2, 0x
  2a:	0004                	.insn	2, 0x0004
  2c:	0000                	.insn	2, 0x
  2e:	0000                	.insn	2, 0x
  30:	8090                	.insn	2, 0x8090
  32:	0000                	.insn	2, 0x
  34:	00a4                	.insn	2, 0x00a4
	...

セクション .debug_str の逆アセンブル:

00000000 <.debug_str>:
   0:	6d6f682f          	.insn	4, 0x6d6f682f
   4:	2f65                	.insn	2, 0x2f65
   6:	6564                	.insn	2, 0x6564
   8:	6a6e                	.insn	2, 0x6a6e
   a:	33622f6f          	jal	t5,22340 <stack_top+0x2340>
   e:	7865                	.insn	2, 0x7865
  10:	2f70                	.insn	2, 0x2f70
  12:	6562                	.insn	2, 0x6562
  14:	636e                	.insn	2, 0x636e
  16:	6d68                	.insn	2, 0x6d68
  18:	7261                	.insn	2, 0x7261
  1a:	742f736b          	.insn	4, 0x742f736b
  1e:	736c6f6f          	jal	t5,c6754 <stack_top+0xa6754>
  22:	7472632f          	.insn	4, 0x7472632f
  26:	732e                	.insn	2, 0x732e
  28:	2f00                	.insn	2, 0x2f00
  2a:	6f68                	.insn	2, 0x6f68
  2c:	656d                	.insn	2, 0x656d
  2e:	6e65642f          	.insn	4, 0x6e65642f
  32:	6f6a                	.insn	2, 0x6f6a
  34:	6533622f          	.insn	4, 0x6533622f
  38:	7078                	.insn	2, 0x7078
  3a:	6e65622f          	.insn	4, 0x6e65622f
  3e:	616d6863          	bltu	s10,s6,64e <_start-0x79b2>
  42:	6b72                	.insn	2, 0x6b72
  44:	65742f73          	.insn	4, 0x65742f73
  48:	00737473          	.insn	4, 0x00737473
  4c:	20554e47          	.insn	4, 0x20554e47
  50:	5341                	.insn	2, 0x5341
  52:	3220                	.insn	2, 0x3220
  54:	342e                	.insn	2, 0x342e
  56:	0031                	.insn	2, 0x0031
  58:	6e49                	.insn	2, 0x6e49
  5a:	5274                	.insn	2, 0x5274
  5c:	6765                	.insn	2, 0x6765
  5e:	6552                	.insn	2, 0x6552
  60:	6f632f67          	.insn	4, 0x6f632f67
  64:	6564                	.insn	2, 0x6564
  66:	732e                	.insn	2, 0x732e
	...
